target datalayout = "e-m:e-p270:32:32-p271:32:32-p272:64:64-i64:64-i128:128-f80:128-n8:16:32:64-S128"
target triple = "x86_64-pc-linux-gnu"

@update_process_title = dso_local global i8 1, align 1
@ps_buffer = internal global ptr null, align 8
@ps_buffer_size = internal global i64 0, align 8
@last_status_len = internal global i64 0, align 8
@IsUnderPostmaster = external global i8, align 1
@ps_buffer_cur_len = internal global i64 0, align 8
@ps_buffer_nosuffix_len = internal global i64 0, align 8

; Function Attrs: nounwind uwtable
define internal void @flush_ps_display() #0 {
  %1 = alloca ptr, align 8
  %2 = alloca i32, align 4
  %3 = alloca i64, align 8
  %4 = alloca ptr, align 8
  %5 = alloca ptr, align 8
  %6 = load i64, ptr @last_status_len, align 8
  %7 = load i64, ptr @ps_buffer_cur_len, align 8
  %8 = icmp ugt i64 %6, %7
  br i1 %8, label %9, label %51

9:                                                ; preds = %0
  br label %10

10:                                               ; preds = %9
  call void @llvm.lifetime.start.p0(i64 8, ptr %1) #10
  %11 = load ptr, ptr @ps_buffer, align 8
  %12 = load i64, ptr @ps_buffer_cur_len, align 8
  %13 = getelementptr inbounds nuw i8, ptr %11, i64 %12
  store ptr %13, ptr %1, align 8
  call void @llvm.lifetime.start.p0(i64 4, ptr %2) #10
  store i32 0, ptr %2, align 4
  call void @llvm.lifetime.start.p0(i64 8, ptr %3) #10
  %14 = load i64, ptr @last_status_len, align 8
  %15 = load i64, ptr @ps_buffer_cur_len, align 8
  %16 = sub i64 %14, %15
  store i64 %16, ptr %3, align 8
  %17 = load ptr, ptr %1, align 8
  %18 = ptrtoint ptr %17 to i64
  %19 = and i64 %18, 7
  %20 = icmp eq i64 %19, 0
  br i1 %20, label %21, label %44

21:                                               ; preds = %10
  %22 = load i64, ptr %3, align 8
  %23 = and i64 %22, 7
  %24 = icmp eq i64 %23, 0
  br i1 %24, label %25, label %44

25:                                               ; preds = %21
  %26 = load i32, ptr %2, align 4
  %27 = icmp eq i32 %26, 0
  br i1 %27, label %28, label %44

28:                                               ; preds = %25
  %29 = load i64, ptr %3, align 8
  %30 = icmp ule i64 %29, 1024
  br i1 %30, label %31, label %44

31:                                               ; preds = %28
  call void @llvm.lifetime.start.p0(i64 8, ptr %4) #10
  %32 = load ptr, ptr %1, align 8
  store ptr %32, ptr %4, align 8
  call void @llvm.lifetime.start.p0(i64 8, ptr %5) #10
  %33 = load ptr, ptr %4, align 8
  %34 = load i64, ptr %3, align 8
  %35 = getelementptr inbounds nuw i8, ptr %33, i64 %34
  store ptr %35, ptr %5, align 8
  br label %36

36:                                               ; preds = %40, %31
  %37 = load ptr, ptr %4, align 8
  %38 = load ptr, ptr %5, align 8
  %39 = icmp ult ptr %37, %38
  br i1 %39, label %40, label %43

40:                                               ; preds = %36
  %41 = load ptr, ptr %4, align 8
  %42 = getelementptr inbounds nuw i64, ptr %41, i32 1
  store ptr %42, ptr %4, align 8
  store i64 0, ptr %41, align 8
  br label %36, !llvm.loop !12

43:                                               ; preds = %36
  call void @llvm.lifetime.end.p0(i64 8, ptr %5) #10
  call void @llvm.lifetime.end.p0(i64 8, ptr %4) #10
  br label %49

44:                                               ; preds = %28, %25, %21, %10
  %45 = load ptr, ptr %1, align 8
  %46 = load i32, ptr %2, align 4
  %47 = trunc i32 %46 to i8
  %48 = load i64, ptr %3, align 8
  call void @llvm.memset.p0.i64(ptr align 1 %45, i8 %47, i64 %48, i1 false)
  br label %49

49:                                               ; preds = %44, %43
  call void @llvm.lifetime.end.p0(i64 8, ptr %3) #10
  call void @llvm.lifetime.end.p0(i64 4, ptr %2) #10
  call void @llvm.lifetime.end.p0(i64 8, ptr %1) #10
  br label %50

50:                                               ; preds = %49
  br label %51

51:                                               ; preds = %50, %0
  %52 = load i64, ptr @ps_buffer_cur_len, align 8
  store i64 %52, ptr @last_status_len, align 8
  ret void
}

; Function Attrs: nounwind uwtable
define internal zeroext i1 @update_ps_display_precheck() #0 {
  %1 = alloca i1, align 1
  %2 = load i8, ptr @update_process_title, align 1, !range !9, !noundef !10
  %3 = trunc i8 %2 to i1
  br i1 %3, label %5, label %4

4:                                                ; preds = %0
  store i1 false, ptr %1, align 1
  br label %14

5:                                                ; preds = %0
  %6 = load i8, ptr @IsUnderPostmaster, align 1, !range !9, !noundef !10
  %7 = trunc i8 %6 to i1
  br i1 %7, label %9, label %8

8:                                                ; preds = %5
  store i1 false, ptr %1, align 1
  br label %14

9:                                                ; preds = %5
  %10 = load ptr, ptr @ps_buffer, align 8
  %11 = icmp ne ptr %10, null
  br i1 %11, label %13, label %12

12:                                               ; preds = %9
  store i1 false, ptr %1, align 1
  br label %14

13:                                               ; preds = %9
  store i1 true, ptr %1, align 1
  br label %14

14:                                               ; preds = %13, %12, %8, %4
  %15 = load i1, ptr %1, align 1
  ret i1 %15
}

; Function Attrs: nounwind uwtable
define dso_local void @set_ps_display_suffix(ptr noundef %0) #0 {
  %2 = alloca ptr, align 8
  %3 = alloca i64, align 8
  %4 = alloca i32, align 4
  store ptr %0, ptr %2, align 8
  call void @llvm.lifetime.start.p0(i64 8, ptr %3) #10
  %5 = call zeroext i1 @update_ps_display_precheck()
  br i1 %5, label %7, label %6

6:                                                ; preds = %1
  store i32 1, ptr %4, align 4
  br label %63

7:                                                ; preds = %1
  %8 = load i64, ptr @ps_buffer_nosuffix_len, align 8
  %9 = icmp ugt i64 %8, 0
  br i1 %9, label %10, label %12

10:                                               ; preds = %7
  %11 = load i64, ptr @ps_buffer_nosuffix_len, align 8
  store i64 %11, ptr @ps_buffer_cur_len, align 8
  br label %14

12:                                               ; preds = %7
  %13 = load i64, ptr @ps_buffer_cur_len, align 8
  store i64 %13, ptr @ps_buffer_nosuffix_len, align 8
  br label %14

14:                                               ; preds = %12, %10
  %15 = load ptr, ptr %2, align 8
  %16 = call i64 @strlen(ptr noundef %15) #11
  store i64 %16, ptr %3, align 8
  %17 = load i64, ptr @ps_buffer_cur_len, align 8
  %18 = load i64, ptr %3, align 8
  %19 = add i64 %17, %18
  %20 = add i64 %19, 1
  %21 = load i64, ptr @ps_buffer_size, align 8
  %22 = icmp uge i64 %20, %21
  br i1 %22, label %23, label %48

23:                                               ; preds = %14
  %24 = load i64, ptr @ps_buffer_cur_len, align 8
  %25 = load i64, ptr @ps_buffer_size, align 8
  %26 = sub i64 %25, 1
  %27 = icmp ult i64 %24, %26
  br i1 %27, label %28, label %47

28:                                               ; preds = %23
  %29 = load ptr, ptr @ps_buffer, align 8
  %30 = load i64, ptr @ps_buffer_cur_len, align 8
  %31 = add i64 %30, 1
  store i64 %31, ptr @ps_buffer_cur_len, align 8
  %32 = getelementptr inbounds nuw i8, ptr %29, i64 %30
  store i8 32, ptr %32, align 1
  %33 = load ptr, ptr @ps_buffer, align 8
  %34 = load i64, ptr @ps_buffer_cur_len, align 8
  %35 = getelementptr inbounds nuw i8, ptr %33, i64 %34
  %36 = load ptr, ptr %2, align 8
  %37 = load i64, ptr @ps_buffer_size, align 8
  %38 = load i64, ptr @ps_buffer_cur_len, align 8
  %39 = sub i64 %37, %38
  %40 = sub i64 %39, 1
  call void @llvm.memcpy.p0.p0.i64(ptr align 1 %35, ptr align 1 %36, i64 %40, i1 false)
  %41 = load ptr, ptr @ps_buffer, align 8
  %42 = load i64, ptr @ps_buffer_size, align 8
  %43 = sub i64 %42, 1
  %44 = getelementptr inbounds nuw i8, ptr %41, i64 %43
  store i8 0, ptr %44, align 1
  %45 = load i64, ptr @ps_buffer_size, align 8
  %46 = sub i64 %45, 1
  store i64 %46, ptr @ps_buffer_cur_len, align 8
  br label %47

47:                                               ; preds = %28, %23
  br label %62

48:                                               ; preds = %14
  %49 = load ptr, ptr @ps_buffer, align 8
  %50 = load i64, ptr @ps_buffer_cur_len, align 8
  %51 = add i64 %50, 1
  store i64 %51, ptr @ps_buffer_cur_len, align 8
  %52 = getelementptr inbounds nuw i8, ptr %49, i64 %50
  store i8 32, ptr %52, align 1
  %53 = load ptr, ptr @ps_buffer, align 8
  %54 = load i64, ptr @ps_buffer_cur_len, align 8
  %55 = getelementptr inbounds nuw i8, ptr %53, i64 %54
  %56 = load ptr, ptr %2, align 8
  %57 = load i64, ptr %3, align 8
  %58 = add i64 %57, 1
  call void @llvm.memcpy.p0.p0.i64(ptr align 1 %55, ptr align 1 %56, i64 %58, i1 false)
  %59 = load i64, ptr @ps_buffer_cur_len, align 8
  %60 = load i64, ptr %3, align 8
  %61 = add i64 %59, %60
  store i64 %61, ptr @ps_buffer_cur_len, align 8
  br label %62

62:                                               ; preds = %48, %47
  call void @flush_ps_display()
  store i32 0, ptr %4, align 4
  br label %63

63:                                               ; preds = %62, %6
  call void @llvm.lifetime.end.p0(i64 8, ptr %3) #10
  %64 = load i32, ptr %4, align 4
  switch i32 %64, label %66 [
    i32 0, label %65
    i32 1, label %65
  ]

65:                                               ; preds = %63, %63
  ret void

66:                                               ; preds = %63
  unreachable
}