; Function Attrs: mustprogress nofree nounwind willreturn memory(readwrite, inaccessiblemem: none) uwtable
define dso_local void @set_ps_display_suffix(ptr noundef readonly captures(none) %0) local_unnamed_addr #6 {
  %2 = load i8, ptr @update_process_title, align 1, !range !9, !noundef !10
  %3 = trunc nuw i8 %2 to i1
  br i1 %3, label %4, label %update_ps_display_precheck.exit.thread

4:                                                ; preds = %1
  %5 = load i8, ptr @IsUnderPostmaster, align 1, !range !9, !noundef !10
  %6 = trunc nuw i8 %5 to i1
  %7 = load ptr, ptr @ps_buffer, align 8
  %.not.i = icmp ne ptr %7, null
  %or.cond = select i1 %6, i1 %.not.i, i1 false
  br i1 %or.cond, label %8, label %update_ps_display_precheck.exit.thread

8:                                                ; preds = %4
  %9 = load i64, ptr @ps_buffer_nosuffix_len, align 8
  %.not = icmp eq i64 %9, 0
  br i1 %.not, label %11, label %10

10:                                               ; preds = %8
  store i64 %9, ptr @ps_buffer_cur_len, align 8
  br label %13

11:                                               ; preds = %8
  %12 = load i64, ptr @ps_buffer_cur_len, align 8
  store i64 %12, ptr @ps_buffer_nosuffix_len, align 8
  br label %13

13:                                               ; preds = %11, %10
  %14 = phi i64 [ %12, %11 ], [ %9, %10 ]
  %15 = tail call i64 @strlen(ptr noundef nonnull dereferenceable(1) %0) #13
  %16 = add i64 %14, 1
  %17 = add i64 %16, %15
  %18 = load i64, ptr @ps_buffer_size, align 8
  %.not7 = icmp ult i64 %17, %18
  br i1 %.not7, label %28, label %19

19:                                               ; preds = %13
  %20 = add i64 %18, -1
  %21 = icmp ult i64 %14, %20
  br i1 %21, label %22, label %32

22:                                               ; preds = %19
  %23 = getelementptr inbounds nuw i8, ptr %7, i64 %14
  store i8 32, ptr %23, align 1
  %24 = getelementptr inbounds nuw i8, ptr %7, i64 %16
  %reass.sub10 = sub i64 %18, %14
  %25 = add i64 %reass.sub10, -2
  tail call void @llvm.memcpy.p0.p0.i64(ptr nonnull align 1 %24, ptr nonnull align 1 %0, i64 %25, i1 false)
  %26 = getelementptr i8, ptr %7, i64 %18
  %27 = getelementptr i8, ptr %26, i64 -1
  store i8 0, ptr %27, align 1
  br label %.sink.split

28:                                               ; preds = %13
  %29 = getelementptr inbounds nuw i8, ptr %7, i64 %14
  store i8 32, ptr %29, align 1
  %30 = getelementptr inbounds nuw i8, ptr %7, i64 %16
  %31 = add i64 %15, 1
  tail call void @llvm.memcpy.p0.p0.i64(ptr nonnull align 1 %30, ptr nonnull align 1 %0, i64 %31, i1 false)
  br label %.sink.split

.sink.split:                                      ; preds = %28, %22
  %.sink = phi i64 [ %20, %22 ], [ %17, %28 ]
  store i64 %.sink, ptr @ps_buffer_cur_len, align 8
  br label %32

32:                                               ; preds = %.sink.split, %19
  %33 = phi i64 [ %14, %19 ], [ %.sink, %.sink.split ]
  %34 = load i64, ptr @last_status_len, align 8
  %35 = icmp ugt i64 %34, %33
  br i1 %35, label %36, label %flush_ps_display.exit

36:                                               ; preds = %32
  %37 = ptrtoint ptr %7 to i64
  %38 = getelementptr inbounds nuw i8, ptr %7, i64 %33
  %39 = sub nuw i64 %34, %33
  %40 = ptrtoint ptr %38 to i64
  %41 = and i64 %40, 7
  %42 = icmp eq i64 %41, 0
  br i1 %42, label %43, label %flush_ps_display.exit.sink.split

43:                                               ; preds = %36
  %44 = and i64 %39, 7
  %45 = icmp eq i64 %44, 0
  %46 = icmp ult i64 %39, 1025
  %or.cond3.i = and i1 %46, %45
  br i1 %or.cond3.i, label %.lr.ph.preheader.i, label %flush_ps_display.exit.sink.split

.lr.ph.preheader.i:                               ; preds = %43
  %47 = add i64 %33, 8
  %48 = add i64 %47, %37
  %49 = add i64 %34, %37
  %umax.i = tail call i64 @llvm.umax.i64(i64 %48, i64 %49)
  %50 = xor i64 %33, -1
  %51 = sub i64 %50, %37
  %52 = add i64 %51, %umax.i
  %53 = and i64 %52, -8
  %54 = add i64 %53, 8
  br label %flush_ps_display.exit.sink.split

flush_ps_display.exit.sink.split:                 ; preds = %36, %43, %.lr.ph.preheader.i
  %.sink11 = phi i64 [ %54, %.lr.ph.preheader.i ], [ %39, %43 ], [ %39, %36 ]
  tail call void @llvm.memset.p0.i64(ptr nonnull align 1 %38, i8 0, i64 %.sink11, i1 false)
  br label %flush_ps_display.exit

flush_ps_display.exit:                            ; preds = %flush_ps_display.exit.sink.split, %32
  store i64 %33, ptr @last_status_len, align 8
  br label %update_ps_display_precheck.exit.thread

update_ps_display_precheck.exit.thread:           ; preds = %4, %1, %flush_ps_display.exit
  ret void
}